TN:
SF:/home/vladimir/Desktop/прога/лабы/3/code/chainingHash/chainingHash.cpp
FN:101,135,_ZNK12ChainingHash9serializeERKNSt7__cxx1112basic_stringIcSt11char_traitsIcESaIcEEE
FN:13,21,_ZN12ChainingHashD2Ev
FN:138,188,_ZN12ChainingHash11deserializeERKNSt7__cxx1112basic_stringIcSt11char_traitsIcESaIcEEE
FN:24,30,_ZN12ChainingHash8hashFuncERKNSt7__cxx1112basic_stringIcSt11char_traitsIcESaIcEEE
FN:33,51,_ZN12ChainingHash3putENSt7__cxx1112basic_stringIcSt11char_traitsIcESaIcEEES5_
FN:54,63,_ZN12ChainingHash3getENSt7__cxx1112basic_stringIcSt11char_traitsIcESaIcEEE
FN:66,85,_ZN12ChainingHash6removeENSt7__cxx1112basic_stringIcSt11char_traitsIcESaIcEEE
FN:8,10,_ZN12ChainingHashC2Ei
FN:88,98,_ZNK12ChainingHash5printEv
FNDA:1,_ZNK12ChainingHash9serializeERKNSt7__cxx1112basic_stringIcSt11char_traitsIcESaIcEEE
FNDA:3,_ZN12ChainingHashD2Ev
FNDA:1,_ZN12ChainingHash11deserializeERKNSt7__cxx1112basic_stringIcSt11char_traitsIcESaIcEEE
FNDA:8,_ZN12ChainingHash8hashFuncERKNSt7__cxx1112basic_stringIcSt11char_traitsIcESaIcEEE
FNDA:4,_ZN12ChainingHash3putENSt7__cxx1112basic_stringIcSt11char_traitsIcESaIcEEES5_
FNDA:2,_ZN12ChainingHash3getENSt7__cxx1112basic_stringIcSt11char_traitsIcESaIcEEE
FNDA:2,_ZN12ChainingHash6removeENSt7__cxx1112basic_stringIcSt11char_traitsIcESaIcEEE
FNDA:3,_ZN12ChainingHashC2Ei
FNDA:1,_ZNK12ChainingHash5printEv
FNF:9
FNH:9
DA:8,3
DA:9,3
DA:10,3
DA:13,3
DA:14,26
DA:15,26
DA:16,3
DA:17,3
DA:18,3
DA:21,3
DA:24,8
DA:25,8
DA:26,28
DA:27,20
DA:29,8
DA:33,4
DA:34,4
DA:35,4
DA:38,4
DA:39,1
DA:40,1
DA:41,1
DA:43,0
DA:47,3
DA:48,3
DA:49,3
DA:50,3
DA:54,2
DA:55,2
DA:56,2
DA:58,2
DA:59,2
DA:60,0
DA:62,0
DA:66,2
DA:67,2
DA:68,2
DA:69,2
DA:71,2
DA:72,1
DA:73,1
DA:74,0
DA:76,1
DA:78,1
DA:79,1
DA:80,1
DA:82,0
DA:83,0
DA:88,1
DA:89,4
DA:90,3
DA:91,3
DA:92,4
DA:93,1
DA:94,1
DA:96,3
DA:98,1
DA:101,1
DA:102,1
DA:103,1
DA:105,1
DA:106,1
DA:108,11
DA:109,10
DA:112,10
DA:113,10
DA:114,11
DA:115,1
DA:116,1
DA:118,10
DA:121,11
DA:122,1
DA:123,1
DA:124,1
DA:126,1
DA:127,1
DA:128,1
DA:130,1
DA:133,1
DA:134,1
DA:135,1
DA:138,1
DA:139,1
DA:140,1
DA:143,11
DA:144,10
DA:145,0
DA:146,0
DA:147,0
DA:150,1
DA:152,1
DA:153,1
DA:154,1
DA:156,11
DA:158,10
DA:161,11
DA:165,1
DA:166,1
DA:167,1
DA:168,1
DA:169,1
DA:170,1
DA:173,1
DA:174,1
DA:175,1
DA:176,1
DA:177,1
DA:178,1
DA:181,1
DA:182,1
DA:183,1
DA:184,1
DA:186,1
DA:187,1
DA:188,1
LF:115
LH:106
end_of_record
TN:
SF:/home/vladimir/Desktop/прога/лабы/3/code/chainingHash/chainingHash.h
FN:14,14,_ZN5NodeHC2ENSt7__cxx1112basic_stringIcSt11char_traitsIcESaIcEEES5_
FNDA:4,_ZN5NodeHC2ENSt7__cxx1112basic_stringIcSt11char_traitsIcESaIcEEES5_
FNF:1
FNH:1
DA:14,4
LF:1
LH:1
end_of_record
TN:
SF:/home/vladimir/Desktop/прога/лабы/3/code/doublyLinkedList/doublyLinkedList.cpp
FN:108,119,_ZN16DoublyLinkedList13deleteByValueENSt7__cxx1112basic_stringIcSt11char_traitsIcESaIcEEE
FN:11,13,_ZN16DoublyLinkedListD2Ev
FN:122,133,_ZN16DoublyLinkedList11deleteAfterENSt7__cxx1112basic_stringIcSt11char_traitsIcESaIcEEE
FN:136,147,_ZN16DoublyLinkedList12deleteBeforeENSt7__cxx1112basic_stringIcSt11char_traitsIcESaIcEEE
FN:150,152,_ZNK16DoublyLinkedList4findENSt7__cxx1112basic_stringIcSt11char_traitsIcESaIcEEE
FN:155,163,_ZNK16DoublyLinkedList5printEv
FN:16,23,_ZNK16DoublyLinkedList10searchNodeENSt7__cxx1112basic_stringIcSt11char_traitsIcESaIcEEE
FN:166,174,_ZNK16DoublyLinkedList12printReverseEv
FN:177,196,_ZNK16DoublyLinkedList9serializeERKNSt7__cxx1112basic_stringIcSt11char_traitsIcESaIcEEE
FN:199,219,_ZN16DoublyLinkedList11deserializeERKNSt7__cxx1112basic_stringIcSt11char_traitsIcESaIcEEE
FN:26,35,_ZN16DoublyLinkedList8pushHeadENSt7__cxx1112basic_stringIcSt11char_traitsIcESaIcEEE
FN:38,47,_ZN16DoublyLinkedList8pushTailENSt7__cxx1112basic_stringIcSt11char_traitsIcESaIcEEE
FN:5,8,_ZN16DoublyLinkedListC2Ev
FN:50,64,_ZN16DoublyLinkedList11insertAfterENSt7__cxx1112basic_stringIcSt11char_traitsIcESaIcEEES5_
FN:67,81,_ZN16DoublyLinkedList12insertBeforeENSt7__cxx1112basic_stringIcSt11char_traitsIcESaIcEEES5_
FN:84,93,_ZN16DoublyLinkedList10deleteHeadEv
FN:96,105,_ZN16DoublyLinkedList10deleteTailEv
FNDA:1,_ZN16DoublyLinkedList13deleteByValueENSt7__cxx1112basic_stringIcSt11char_traitsIcESaIcEEE
FNDA:3,_ZN16DoublyLinkedListD2Ev
FNDA:2,_ZN16DoublyLinkedList11deleteAfterENSt7__cxx1112basic_stringIcSt11char_traitsIcESaIcEEE
FNDA:2,_ZN16DoublyLinkedList12deleteBeforeENSt7__cxx1112basic_stringIcSt11char_traitsIcESaIcEEE
FNDA:1,_ZNK16DoublyLinkedList4findENSt7__cxx1112basic_stringIcSt11char_traitsIcESaIcEEE
FNDA:1,_ZNK16DoublyLinkedList5printEv
FNDA:10,_ZNK16DoublyLinkedList10searchNodeENSt7__cxx1112basic_stringIcSt11char_traitsIcESaIcEEE
FNDA:1,_ZNK16DoublyLinkedList12printReverseEv
FNDA:1,_ZNK16DoublyLinkedList9serializeERKNSt7__cxx1112basic_stringIcSt11char_traitsIcESaIcEEE
FNDA:1,_ZN16DoublyLinkedList11deserializeERKNSt7__cxx1112basic_stringIcSt11char_traitsIcESaIcEEE
FNDA:2,_ZN16DoublyLinkedList8pushHeadENSt7__cxx1112basic_stringIcSt11char_traitsIcESaIcEEE
FNDA:2,_ZN16DoublyLinkedList8pushTailENSt7__cxx1112basic_stringIcSt11char_traitsIcESaIcEEE
FNDA:3,_ZN16DoublyLinkedListC2Ev
FNDA:2,_ZN16DoublyLinkedList11insertAfterENSt7__cxx1112basic_stringIcSt11char_traitsIcESaIcEEES5_
FNDA:2,_ZN16DoublyLinkedList12insertBeforeENSt7__cxx1112basic_stringIcSt11char_traitsIcESaIcEEES5_
FNDA:3,_ZN16DoublyLinkedList10deleteHeadEv
FNDA:1,_ZN16DoublyLinkedList10deleteTailEv
FNF:17
FNH:17
DA:5,3
DA:6,3
DA:7,3
DA:8,3
DA:11,3
DA:12,5
DA:13,3
DA:16,10
DA:17,10
DA:18,14
DA:19,9
DA:20,4
DA:22,5
DA:26,2
DA:27,2
DA:28,2
DA:29,2
DA:31,0
DA:32,0
DA:33,0
DA:35,2
DA:38,2
DA:39,2
DA:40,2
DA:41,1
DA:43,1
DA:44,1
DA:45,1
DA:47,2
DA:50,2
DA:51,2
DA:52,2
DA:54,1
DA:55,0
DA:56,0
DA:59,1
DA:60,1
DA:61,1
DA:62,1
DA:63,1
DA:67,2
DA:68,2
DA:69,2
DA:71,1
DA:72,0
DA:73,0
DA:76,1
DA:77,1
DA:78,1
DA:79,1
DA:80,1
DA:84,3
DA:85,3
DA:86,3
DA:87,3
DA:89,3
DA:90,2
DA:92,3
DA:96,1
DA:97,1
DA:98,1
DA:99,1
DA:101,1
DA:102,1
DA:104,1
DA:108,1
DA:109,1
DA:110,1
DA:112,0
DA:113,0
DA:115,0
DA:116,0
DA:117,0
DA:122,2
DA:123,2
DA:124,2
DA:126,1
DA:127,1
DA:129,1
DA:130,1
DA:131,1
DA:136,2
DA:137,2
DA:138,2
DA:140,1
DA:141,1
DA:143,1
DA:144,1
DA:145,1
DA:150,1
DA:151,1
DA:155,1
DA:156,1
DA:157,1
DA:158,1
DA:159,0
DA:160,0
DA:162,1
DA:163,1
DA:166,1
DA:167,1
DA:168,1
DA:169,1
DA:170,0
DA:171,0
DA:173,1
DA:174,1
DA:177,1
DA:178,1
DA:179,1
DA:181,1
DA:182,1
DA:183,2
DA:185,1
DA:187,1
DA:188,2
DA:189,1
DA:190,1
DA:191,1
DA:192,1
DA:194,1
DA:195,1
DA:196,1
DA:199,1
DA:200,1
DA:201,1
DA:203,1
DA:206,1
DA:208,2
DA:210,1
DA:211,1
DA:212,1
DA:213,1
DA:214,1
DA:215,1
DA:217,1
DA:218,1
DA:219,1
LF:138
LH:122
end_of_record
TN:
SF:/home/vladimir/Desktop/прога/лабы/3/code/doublyLinkedList/doublyLinkedList.h
FN:12,12,_ZN5DNodeC2ENSt7__cxx1112basic_stringIcSt11char_traitsIcESaIcEEE
FNDA:6,_ZN5DNodeC2ENSt7__cxx1112basic_stringIcSt11char_traitsIcESaIcEEE
FNF:1
FNH:1
DA:12,6
LF:1
LH:1
end_of_record
TN:
SF:/home/vladimir/Desktop/прога/лабы/3/code/massive/massive.cpp
FN:104,119,_ZNK7Massive9serializeERKNSt7__cxx1112basic_stringIcSt11char_traitsIcESaIcEEE
FN:12,17,_ZN7MassiveC2Ei
FN:122,147,_ZN7Massive11deserializeERKNSt7__cxx1112basic_stringIcSt11char_traitsIcESaIcEEE
FN:20,22,_ZN7MassiveD2Ev
FN:25,36,_ZN7Massive6expandEv
FN:39,41,_ZNK7Massive6lengthEv
FN:44,50,_ZN7Massive8pushBackENSt7__cxx1112basic_stringIcSt11char_traitsIcESaIcEEE
FN:5,9,_ZN7MassiveC2Ev
FN:53,67,_ZN7Massive6insertEiNSt7__cxx1112basic_stringIcSt11char_traitsIcESaIcEEE
FN:70,73,_ZNK7Massive3getB5cxx11Ei
FN:76,85,_ZN7Massive6removeEi
FN:88,92,_ZN7Massive3setEiNSt7__cxx1112basic_stringIcSt11char_traitsIcESaIcEEE
FN:95,101,_ZNK7Massive5printEv
FNDA:1,_ZNK7Massive9serializeERKNSt7__cxx1112basic_stringIcSt11char_traitsIcESaIcEEE
FNDA:3,_ZN7MassiveC2Ei
FNDA:1,_ZN7Massive11deserializeERKNSt7__cxx1112basic_stringIcSt11char_traitsIcESaIcEEE
FNDA:3,_ZN7MassiveD2Ev
FNDA:1,_ZN7Massive6expandEv
FNDA:0,_ZNK7Massive6lengthEv
FNDA:4,_ZN7Massive8pushBackENSt7__cxx1112basic_stringIcSt11char_traitsIcESaIcEEE
FNDA:0,_ZN7MassiveC2Ev
FNDA:2,_ZN7Massive6insertEiNSt7__cxx1112basic_stringIcSt11char_traitsIcESaIcEEE
FNDA:5,_ZNK7Massive3getB5cxx11Ei
FNDA:2,_ZN7Massive6removeEi
FNDA:2,_ZN7Massive3setEiNSt7__cxx1112basic_stringIcSt11char_traitsIcESaIcEEE
FNDA:1,_ZNK7Massive5printEv
FNF:13
FNH:11
DA:5,0
DA:6,0
DA:7,0
DA:8,0
DA:9,0
DA:12,3
DA:13,3
DA:14,3
DA:15,3
DA:16,15
DA:17,3
DA:20,3
DA:21,17
DA:22,3
DA:25,1
DA:26,1
DA:27,5
DA:30,3
DA:31,2
DA:34,3
DA:35,1
DA:36,1
DA:39,0
DA:40,0
DA:44,4
DA:45,4
DA:46,1
DA:48,4
DA:49,4
DA:50,4
DA:53,2
DA:54,2
DA:56,1
DA:57,0
DA:61,3
DA:62,2
DA:65,1
DA:66,1
DA:70,5
DA:71,9
DA:72,3
DA:76,2
DA:77,2
DA:80,3
DA:81,2
DA:84,1
DA:88,2
DA:89,2
DA:90,1
DA:92,2
DA:95,1
DA:96,1
DA:97,4
DA:98,3
DA:100,1
DA:101,1
DA:104,1
DA:105,1
DA:106,1
DA:108,1
DA:109,1
DA:111,2
DA:112,1
DA:113,1
DA:114,1
DA:117,1
DA:118,1
DA:119,1
DA:122,1
DA:123,1
DA:124,1
DA:126,6
DA:128,1
DA:129,1
DA:131,6
DA:133,2
DA:135,1
DA:137,1
DA:138,1
DA:139,1
DA:141,1
DA:142,1
DA:145,1
DA:146,1
DA:147,1
LF:85
LH:77
end_of_record
TN:
SF:/home/vladimir/Desktop/прога/лабы/3/code/queue/queue.cpp
FN:12,14,_ZN5QueueD2Ev
FN:17,26,_ZN5Queue4pushENSt7__cxx1112basic_stringIcSt11char_traitsIcESaIcEEE
FN:29,38,_ZN5Queue3popB5cxx11Ev
FN:41,49,_ZNK5Queue5printEv
FN:5,9,_ZN5QueueC2Ev
FN:52,54,_ZNK5Queue6lengthEv
FN:57,72,_ZNK5Queue9serializeERKNSt7__cxx1112basic_stringIcSt11char_traitsIcESaIcEEE
FN:75,95,_ZN5Queue11deserializeERKNSt7__cxx1112basic_stringIcSt11char_traitsIcESaIcEEE
FNDA:3,_ZN5QueueD2Ev
FNDA:3,_ZN5Queue4pushENSt7__cxx1112basic_stringIcSt11char_traitsIcESaIcEEE
FNDA:4,_ZN5Queue3popB5cxx11Ev
FNDA:1,_ZNK5Queue5printEv
FNDA:3,_ZN5QueueC2Ev
FNDA:0,_ZNK5Queue6lengthEv
FNDA:1,_ZNK5Queue9serializeERKNSt7__cxx1112basic_stringIcSt11char_traitsIcESaIcEEE
FNDA:1,_ZN5Queue11deserializeERKNSt7__cxx1112basic_stringIcSt11char_traitsIcESaIcEEE
FNF:8
FNH:7
DA:5,3
DA:6,3
DA:7,3
DA:8,3
DA:9,3
DA:12,3
DA:13,4
DA:14,3
DA:17,3
DA:18,3
DA:19,3
DA:20,0
DA:21,0
DA:23,3
DA:25,3
DA:26,3
DA:29,4
DA:30,6
DA:31,3
DA:32,3
DA:33,3
DA:34,3
DA:35,3
DA:36,3
DA:37,3
DA:38,3
DA:41,1
DA:42,1
DA:43,1
DA:44,1
DA:45,0
DA:46,0
DA:48,1
DA:49,1
DA:52,0
DA:53,0
DA:57,1
DA:58,1
DA:59,1
DA:61,1
DA:63,1
DA:64,2
DA:65,1
DA:66,1
DA:67,1
DA:68,1
DA:70,1
DA:71,1
DA:72,1
DA:75,1
DA:76,1
DA:77,1
DA:79,1
DA:82,1
DA:84,2
DA:86,1
DA:87,1
DA:88,1
DA:89,1
DA:90,1
DA:91,1
DA:93,1
DA:94,1
DA:95,1
LF:64
LH:58
end_of_record
TN:
SF:/home/vladimir/Desktop/прога/лабы/3/code/queue/queue.h
FN:11,11,_ZN5QNodeC2ENSt7__cxx1112basic_stringIcSt11char_traitsIcESaIcEEE
FNDA:3,_ZN5QNodeC2ENSt7__cxx1112basic_stringIcSt11char_traitsIcESaIcEEE
FNF:1
FNH:1
DA:11,3
LF:1
LH:1
end_of_record
TN:
SF:/home/vladimir/Desktop/прога/лабы/3/code/singlyLinkedList/singlyLinkedList.cpp
FN:10,12,_ZN16SinglyLinkedListD2Ev
FN:104,114,_ZN16SinglyLinkedList11deleteAfterENSt7__cxx1112basic_stringIcSt11char_traitsIcESaIcEEE
FN:117,132,_ZN16SinglyLinkedList12deleteBeforeENSt7__cxx1112basic_stringIcSt11char_traitsIcESaIcEEE
FN:135,142,_ZNK16SinglyLinkedList4findENSt7__cxx1112basic_stringIcSt11char_traitsIcESaIcEEE
FN:145,153,_ZNK16SinglyLinkedList5printEv
FN:15,19,_ZN16SinglyLinkedList8pushHeadENSt7__cxx1112basic_stringIcSt11char_traitsIcESaIcEEE
FN:156,168,_ZNK16SinglyLinkedList9serializeERKNSt7__cxx1112basic_stringIcSt11char_traitsIcESaIcEEE
FN:171,187,_ZN16SinglyLinkedList11deserializeERKNSt7__cxx1112basic_stringIcSt11char_traitsIcESaIcEEE
FN:22,31,_ZN16SinglyLinkedList8pushTailENSt7__cxx1112basic_stringIcSt11char_traitsIcESaIcEEE
FN:34,44,_ZN16SinglyLinkedList11insertAfterENSt7__cxx1112basic_stringIcSt11char_traitsIcESaIcEEES5_
FN:47,62,_ZN16SinglyLinkedList12insertBeforeENSt7__cxx1112basic_stringIcSt11char_traitsIcESaIcEEES5_
FN:5,7,_ZN16SinglyLinkedListC2Ev
FN:65,70,_ZN16SinglyLinkedList10deleteHeadEv
FN:73,83,_ZN16SinglyLinkedList10deleteTailEv
FN:86,101,_ZN16SinglyLinkedList13deleteByValueENSt7__cxx1112basic_stringIcSt11char_traitsIcESaIcEEE
FNDA:4,_ZN16SinglyLinkedListD2Ev
FNDA:1,_ZN16SinglyLinkedList11deleteAfterENSt7__cxx1112basic_stringIcSt11char_traitsIcESaIcEEE
FNDA:1,_ZN16SinglyLinkedList12deleteBeforeENSt7__cxx1112basic_stringIcSt11char_traitsIcESaIcEEE
FNDA:9,_ZNK16SinglyLinkedList4findENSt7__cxx1112basic_stringIcSt11char_traitsIcESaIcEEE
FNDA:1,_ZNK16SinglyLinkedList5printEv
FNDA:2,_ZN16SinglyLinkedList8pushHeadENSt7__cxx1112basic_stringIcSt11char_traitsIcESaIcEEE
FNDA:1,_ZNK16SinglyLinkedList9serializeERKNSt7__cxx1112basic_stringIcSt11char_traitsIcESaIcEEE
FNDA:1,_ZN16SinglyLinkedList11deserializeERKNSt7__cxx1112basic_stringIcSt11char_traitsIcESaIcEEE
FNDA:7,_ZN16SinglyLinkedList8pushTailENSt7__cxx1112basic_stringIcSt11char_traitsIcESaIcEEE
FNDA:1,_ZN16SinglyLinkedList11insertAfterENSt7__cxx1112basic_stringIcSt11char_traitsIcESaIcEEES5_
FNDA:1,_ZN16SinglyLinkedList12insertBeforeENSt7__cxx1112basic_stringIcSt11char_traitsIcESaIcEEES5_
FNDA:4,_ZN16SinglyLinkedListC2Ev
FNDA:6,_ZN16SinglyLinkedList10deleteHeadEv
FNDA:3,_ZN16SinglyLinkedList10deleteTailEv
FNDA:5,_ZN16SinglyLinkedList13deleteByValueENSt7__cxx1112basic_stringIcSt11char_traitsIcESaIcEEE
FNF:15
FNH:15
DA:5,4
DA:6,4
DA:7,4
DA:10,4
DA:11,7
DA:12,4
DA:15,2
DA:16,2
DA:17,2
DA:18,2
DA:19,2
DA:22,7
DA:23,7
DA:24,7
DA:25,2
DA:26,2
DA:28,5
DA:29,8
DA:30,5
DA:34,1
DA:35,1
DA:36,1
DA:37,0
DA:39,1
DA:40,1
DA:41,1
DA:42,1
DA:44,1
DA:47,1
DA:48,1
DA:49,1
DA:50,0
DA:51,0
DA:53,1
DA:54,3
DA:55,2
DA:57,1
DA:58,1
DA:59,1
DA:60,1
DA:65,6
DA:66,6
DA:67,5
DA:68,5
DA:69,5
DA:73,3
DA:74,3
DA:75,2
DA:76,0
DA:77,0
DA:79,2
DA:80,3
DA:81,2
DA:82,2
DA:86,5
DA:87,5
DA:88,4
DA:89,1
DA:90,1
DA:92,3
DA:93,3
DA:94,0
DA:96,3
DA:97,2
DA:98,2
DA:99,2
DA:104,1
DA:105,1
DA:106,1
DA:107,0
DA:109,1
DA:110,1
DA:111,1
DA:112,1
DA:114,1
DA:117,1
DA:118,1
DA:119,1
DA:120,0
DA:121,0
DA:123,1
DA:124,2
DA:125,1
DA:127,1
DA:128,1
DA:129,1
DA:130,1
DA:135,9
DA:136,9
DA:137,17
DA:138,13
DA:139,8
DA:141,4
DA:145,1
DA:146,1
DA:147,1
DA:148,2
DA:149,1
DA:150,1
DA:152,1
DA:153,1
DA:156,1
DA:157,1
DA:158,1
DA:159,1
DA:160,2
DA:161,1
DA:162,1
DA:163,1
DA:164,1
DA:166,1
DA:168,1
DA:171,1
DA:172,1
DA:173,1
DA:174,1
DA:176,2
DA:178,1
DA:179,1
DA:180,1
DA:181,1
DA:182,1
DA:183,1
DA:185,1
DA:187,1
LF:125
LH:116
end_of_record
TN:
SF:/home/vladimir/Desktop/прога/лабы/3/code/singlyLinkedList/singlyLinkedList.h
FN:11,11,_ZN4NodeC2ENSt7__cxx1112basic_stringIcSt11char_traitsIcESaIcEEE
FNDA:11,_ZN4NodeC2ENSt7__cxx1112basic_stringIcSt11char_traitsIcESaIcEEE
FNF:1
FNH:1
DA:11,11
LF:1
LH:1
end_of_record
TN:
SF:/home/vladimir/Desktop/прога/лабы/3/code/stack/stack.cpp
FN:11,13,_ZN5StackD2Ev
FN:16,20,_ZN5Stack4pushENSt7__cxx1112basic_stringIcSt11char_traitsIcESaIcEEE
FN:23,30,_ZN5Stack3popB5cxx11Ev
FN:33,41,_ZNK5Stack5printEv
FN:44,64,_ZNK5Stack9serializeERKNSt7__cxx1112basic_stringIcSt11char_traitsIcESaIcEEE
FN:6,8,_ZN5StackC2Ev
FN:67,94,_ZN5Stack11deserializeERKNSt7__cxx1112basic_stringIcSt11char_traitsIcESaIcEEE
FNDA:3,_ZN5StackD2Ev
FNDA:3,_ZN5Stack4pushENSt7__cxx1112basic_stringIcSt11char_traitsIcESaIcEEE
FNDA:4,_ZN5Stack3popB5cxx11Ev
FNDA:1,_ZNK5Stack5printEv
FNDA:1,_ZNK5Stack9serializeERKNSt7__cxx1112basic_stringIcSt11char_traitsIcESaIcEEE
FNDA:3,_ZN5StackC2Ev
FNDA:1,_ZN5Stack11deserializeERKNSt7__cxx1112basic_stringIcSt11char_traitsIcESaIcEEE
FNF:7
FNH:7
DA:6,3
DA:7,3
DA:8,3
DA:11,3
DA:12,4
DA:13,3
DA:16,3
DA:17,3
DA:18,3
DA:19,3
DA:20,3
DA:23,4
DA:24,6
DA:25,3
DA:26,3
DA:27,3
DA:28,3
DA:29,3
DA:30,3
DA:33,1
DA:34,1
DA:35,1
DA:36,1
DA:37,0
DA:38,0
DA:40,1
DA:41,1
DA:44,1
DA:45,1
DA:46,1
DA:49,1
DA:50,1
DA:51,2
DA:53,1
DA:55,1
DA:56,2
DA:57,1
DA:58,1
DA:59,1
DA:60,1
DA:62,1
DA:63,1
DA:64,1
DA:67,1
DA:68,1
DA:69,1
DA:71,1
DA:74,1
DA:76,1
DA:77,2
DA:79,1
DA:80,1
DA:81,1
DA:82,1
DA:83,1
DA:84,1
DA:88,2
DA:89,1
DA:92,1
DA:93,1
DA:94,1
LF:61
LH:59
end_of_record
TN:
SF:/home/vladimir/Desktop/прога/лабы/3/code/stack/stack.h
FN:11,11,_ZN6StNodeC2ENSt7__cxx1112basic_stringIcSt11char_traitsIcESaIcEEE
FNDA:3,_ZN6StNodeC2ENSt7__cxx1112basic_stringIcSt11char_traitsIcESaIcEEE
FNF:1
FNH:1
DA:11,3
LF:1
LH:1
end_of_record
TN:
SF:/home/vladimir/Desktop/прога/лабы/3/code/tree/tree.cpp
FN:105,134,_ZN6RBTree6insertEi
FN:137,142,_ZN6RBTree12rbTransplantEP5NodeTS1_
FN:145,148,_ZN6RBTree7minimumEP5NodeT
FN:151,205,_ZN6RBTree9deleteFixEP5NodeT
FN:16,19,_ZN6RBTreeC2Ev
FN:208,244,_ZN6RBTree6removeEi
FN:22,28,_ZN6RBTree10deleteTreeEP5NodeT
FN:247,255,_ZN6RBTree6searchEi
FN:258,273,_ZNK6RBTree11printHelperEP5NodeTNSt7__cxx1112basic_stringIcSt11char_traitsIcESaIcEEEb
FN:276,279,_ZNK6RBTree5printEv
FN:282,288,_ZNK6RBTree14preOrderHelperEP5NodeTRSt14basic_ofstreamIcSt11char_traitsIcEE
FN:291,297,_ZNK6RBTree9serializeERKNSt7__cxx1112basic_stringIcSt11char_traitsIcESaIcEEE
FN:300,316,_ZN6RBTree11deserializeERKNSt7__cxx1112basic_stringIcSt11char_traitsIcESaIcEEE
FN:31,34,_ZN6RBTreeD2Ev
FN:37,47,_ZN6RBTree10leftRotateEP5NodeT
FN:50,60,_ZN6RBTree11rightRotateEP5NodeT
FN:63,102,_ZN6RBTree9insertFixEP5NodeT
FN:8,13,_ZN6RBTree15initializeTNULLEv
FNDA:505,_ZN6RBTree6insertEi
FNDA:660,_ZN6RBTree12rbTransplantEP5NodeTS1_
FNDA:239,_ZN6RBTree7minimumEP5NodeT
FNDA:350,_ZN6RBTree9deleteFixEP5NodeT
FNDA:4,_ZN6RBTreeC2Ev
FNDA:503,_ZN6RBTree6removeEi
FNDA:11,_ZN6RBTree10deleteTreeEP5NodeT
FNDA:2,_ZN6RBTree6searchEi
FNDA:3,_ZNK6RBTree11printHelperEP5NodeTNSt7__cxx1112basic_stringIcSt11char_traitsIcESaIcEEEb
FNDA:1,_ZNK6RBTree5printEv
FNDA:3,_ZNK6RBTree14preOrderHelperEP5NodeTRSt14basic_ofstreamIcSt11char_traitsIcEE
FNDA:1,_ZNK6RBTree9serializeERKNSt7__cxx1112basic_stringIcSt11char_traitsIcESaIcEEE
FNDA:1,_ZN6RBTree11deserializeERKNSt7__cxx1112basic_stringIcSt11char_traitsIcESaIcEEE
FNDA:4,_ZN6RBTreeD2Ev
FNDA:263,_ZN6RBTree10leftRotateEP5NodeT
FNDA:247,_ZN6RBTree11rightRotateEP5NodeT
FNDA:498,_ZN6RBTree9insertFixEP5NodeT
FNDA:4,_ZN6RBTree15initializeTNULLEv
FNF:18
FNH:18
DA:8,4
DA:9,4
DA:10,4
DA:11,4
DA:12,4
DA:13,4
DA:16,4
DA:17,4
DA:18,4
DA:19,4
DA:22,11
DA:23,11
DA:24,3
DA:25,3
DA:26,3
DA:28,11
DA:31,4
DA:32,4
DA:33,4
DA:34,4
DA:37,263
DA:38,263
DA:39,263
DA:40,263
DA:41,263
DA:42,263
DA:43,260
DA:44,82
DA:45,263
DA:46,263
DA:47,263
DA:50,247
DA:51,247
DA:52,247
DA:53,247
DA:54,247
DA:55,247
DA:56,243
DA:57,84
DA:58,247
DA:59,247
DA:60,247
DA:63,498
DA:65,933
DA:66,440
DA:67,212
DA:68,212
DA:69,116
DA:70,116
DA:71,116
DA:72,116
DA:74,96
DA:75,53
DA:76,53
DA:78,96
DA:79,96
DA:80,96
DA:83,228
DA:84,228
DA:85,132
DA:86,132
DA:87,132
DA:88,132
DA:90,96
DA:91,54
DA:92,54
DA:94,96
DA:95,96
DA:96,96
DA:99,440
DA:101,498
DA:102,498
DA:105,505
DA:106,505
DA:107,505
DA:108,505
DA:109,505
DA:110,505
DA:111,505
DA:113,505
DA:114,505
DA:116,4348
DA:117,3843
DA:118,3843
DA:119,1867
DA:122,505
DA:123,505
DA:124,501
DA:125,247
DA:127,505
DA:128,4
DA:129,4
DA:131,501
DA:133,498
DA:137,660
DA:138,660
DA:139,650
DA:140,256
DA:141,660
DA:142,660
DA:145,239
DA:146,569
DA:147,239
DA:151,350
DA:153,713
DA:154,363
DA:155,185
DA:156,185
DA:157,16
DA:158,16
DA:159,16
DA:160,16
DA:162,185
DA:163,124
DA:164,124
DA:166,61
DA:167,28
DA:168,28
DA:169,28
DA:170,28
DA:172,61
DA:173,61
DA:174,61
DA:175,61
DA:176,61
DA:179,178
DA:180,178
DA:181,16
DA:182,16
DA:183,16
DA:184,16
DA:186,178
DA:187,124
DA:188,124
DA:190,54
DA:191,36
DA:192,36
DA:193,36
DA:194,36
DA:196,54
DA:197,54
DA:198,54
DA:199,54
DA:200,54
DA:204,350
DA:205,350
DA:208,503
DA:209,503
DA:211,503
DA:212,4346
DA:213,3843
DA:214,3843
DA:215,2000
DA:218,503
DA:219,502
DA:220,502
DA:221,502
DA:222,228
DA:223,228
DA:224,274
DA:225,35
DA:226,35
DA:228,239
DA:229,239
DA:230,239
DA:231,239
DA:233,158
DA:234,158
DA:235,158
DA:237,239
DA:238,239
DA:239,239
DA:240,239
DA:242,502
DA:243,502
DA:247,2
DA:248,2
DA:249,2
DA:250,2
DA:251,0
DA:252,0
DA:254,0
DA:258,3
DA:259,3
DA:260,1
DA:261,1
DA:262,1
DA:263,1
DA:265,0
DA:266,0
DA:268,1
DA:269,1
DA:270,1
DA:271,1
DA:272,1
DA:273,3
DA:276,1
DA:277,3
DA:278,0
DA:279,1
DA:282,3
DA:283,3
DA:284,1
DA:285,1
DA:286,1
DA:288,3
DA:291,1
DA:292,1
DA:293,1
DA:294,1
DA:295,1
DA:296,1
DA:297,1
DA:300,1
DA:301,1
DA:302,1
DA:305,1
DA:306,1
DA:310,2
DA:311,1
DA:314,1
DA:315,1
DA:316,1
LF:223
LH:217
end_of_record
TN:
SF:/home/vladimir/Desktop/прога/лабы/3/code/tree/tree.h
FN:17,17,_ZN5NodeTC2Ei
FNDA:509,_ZN5NodeTC2Ei
FNF:1
FNH:1
DA:17,509
LF:1
LH:1
end_of_record
